target datalayout = "e-m:e-p270:32:32-p271:32:32-p272:64:64-i64:64-i128:128-f80:128-n8:16:32:64-S128"
target triple = "x86_64-pc-linux-gnu"

%struct.png_struct_def = type { [1 x %struct.__jmp_buf_tag], ptr, ptr, i64, ptr, ptr, ptr, ptr, ptr, ptr, ptr, ptr, i8, i8, i32, i32, i32, i32, %struct.z_stream_s, i32, i32, i32, i32, i64, i32, i32, i32, ptr, ptr, i64, i32, i32, ptr, i16, i32, i16, i8, i8, i8, i8, i8, i8, i8, i8, i8, i8, i8, i8, i8, i8, i16, i8, i32, %struct.png_color_16_struct, %struct.png_color_16_struct, i32, i32, ptr, ptr, ptr, ptr, ptr, ptr, %struct.png_color_8_struct, %struct.png_color_8_struct, ptr, %struct.png_color_16_struct, ptr, ptr, ptr, ptr, ptr, ptr, ptr, ptr, ptr, i32, i32, i64, i64, i64, i64, i32, i32, ptr, ptr, [29 x i8], i32, ptr, ptr, i32, i32, ptr, i8, i8, i16, i16, ptr, i32, i8, ptr, ptr, ptr, ptr, ptr, ptr, ptr, i8, i32, i32, i32, i64, %struct.png_unknown_chunk_t, i64, ptr, i64, i32, i32, ptr, [4 x ptr], %struct.png_colorspace }
%struct.__jmp_buf_tag = type { [8 x i64], i32, %struct.__sigset_t }
%struct.__sigset_t = type { [16 x i64] }
%struct.z_stream_s = type { ptr, i32, i64, ptr, i32, i64, ptr, ptr, ptr, ptr, ptr, i32, i64, i64 }
%struct.png_color_8_struct = type { i8, i8, i8, i8, i8 }
%struct.png_color_16_struct = type { i8, i16, i16, i16, i16 }
%struct.png_unknown_chunk_t = type { [5 x i8], ptr, i64, i8 }
%struct.png_colorspace = type { i32, %struct.png_xy, %struct.png_XYZ, i16, i16 }
%struct.png_xy = type { i32, i32, i32, i32, i32, i32, i32, i32 }
%struct.png_XYZ = type { i32, i32, i32, i32, i32, i32, i32, i32, i32 }

@png_read_finish_row.png_pass_start = internal constant [7 x i8] c"\00\04\00\02\00\01\00", align 1
@png_read_finish_row.png_pass_inc = internal constant [7 x i8] c"\08\08\04\04\02\02\01", align 1
@png_read_finish_row.png_pass_ystart = internal constant [7 x i8] c"\00\00\04\00\02\00\01", align 1
@png_read_finish_row.png_pass_yinc = internal constant [7 x i8] c"\08\08\08\04\04\02\02", align 1

; Function Attrs: nounwind uwtable
define hidden void @png_read_finish_IDAT(ptr noalias noundef %0) #0 {
  %2 = alloca ptr, align 8
  store ptr %0, ptr %2, align 8
  %3 = load ptr, ptr %2, align 8
  %4 = getelementptr inbounds %struct.png_struct_def, ptr %3, i32 0, i32 15
  %5 = load i32, ptr %4, align 8
  %6 = and i32 %5, 8
  %7 = icmp eq i32 %6, 0
  br i1 %7, label %8, label %28

8:                                                ; preds = %1
  %9 = load ptr, ptr %2, align 8
  call void @png_read_IDAT_data(ptr noundef %9, ptr noundef null, i64 noundef 0)
  %10 = load ptr, ptr %2, align 8
  %11 = getelementptr inbounds %struct.png_struct_def, ptr %10, i32 0, i32 18
  %12 = getelementptr inbounds %struct.z_stream_s, ptr %11, i32 0, i32 3
  store ptr null, ptr %12, align 8
  %13 = load ptr, ptr %2, align 8
  %14 = getelementptr inbounds %struct.png_struct_def, ptr %13, i32 0, i32 15
  %15 = load i32, ptr %14, align 8
  %16 = and i32 %15, 8
  %17 = icmp eq i32 %16, 0
  br i1 %17, label %18, label %27

18:                                               ; preds = %8
  %19 = load ptr, ptr %2, align 8
  %20 = getelementptr inbounds %struct.png_struct_def, ptr %19, i32 0, i32 14
  %21 = load i32, ptr %20, align 4
  %22 = or i32 %21, 8
  store i32 %22, ptr %20, align 4
  %23 = load ptr, ptr %2, align 8
  %24 = getelementptr inbounds %struct.png_struct_def, ptr %23, i32 0, i32 15
  %25 = load i32, ptr %24, align 8
  %26 = or i32 %25, 8
  store i32 %26, ptr %24, align 8
  br label %27

27:                                               ; preds = %18, %8
  br label %28

28:                                               ; preds = %27, %1
  %29 = load ptr, ptr %2, align 8
  %30 = getelementptr inbounds %struct.png_struct_def, ptr %29, i32 0, i32 17
  %31 = load i32, ptr %30, align 8
  %32 = icmp eq i32 %31, 1229209940
  br i1 %32, label %33, label %47

33:                                               ; preds = %28
  %34 = load ptr, ptr %2, align 8
  %35 = getelementptr inbounds %struct.png_struct_def, ptr %34, i32 0, i32 18
  %36 = getelementptr inbounds %struct.z_stream_s, ptr %35, i32 0, i32 0
  store ptr null, ptr %36, align 8
  %37 = load ptr, ptr %2, align 8
  %38 = getelementptr inbounds %struct.png_struct_def, ptr %37, i32 0, i32 18
  %39 = getelementptr inbounds %struct.z_stream_s, ptr %38, i32 0, i32 1
  store i32 0, ptr %39, align 8
  %40 = load ptr, ptr %2, align 8
  %41 = getelementptr inbounds %struct.png_struct_def, ptr %40, i32 0, i32 17
  store i32 0, ptr %41, align 8
  %42 = load ptr, ptr %2, align 8
  %43 = load ptr, ptr %2, align 8
  %44 = getelementptr inbounds %struct.png_struct_def, ptr %43, i32 0, i32 30
  %45 = load i32, ptr %44, align 8
  %46 = call i32 @png_crc_finish(ptr noundef %42, i32 noundef %45)
  br label %47

47:                                               ; preds = %33, %28
  ret void
}

; Function Attrs: nounwind uwtable
define hidden void @png_read_finish_row(ptr noalias noundef %0) #0 {
  %2 = alloca ptr, align 8
  store ptr %0, ptr %2, align 8
  %3 = load ptr, ptr %2, align 8
  %4 = getelementptr inbounds %struct.png_struct_def, ptr %3, i32 0, i32 25
  %5 = load i32, ptr %4, align 4
  %6 = add i32 %5, 1
  store i32 %6, ptr %4, align 4
  %7 = load ptr, ptr %2, align 8
  %8 = getelementptr inbounds %struct.png_struct_def, ptr %7, i32 0, i32 25
  %9 = load i32, ptr %8, align 4
  %10 = load ptr, ptr %2, align 8
  %11 = getelementptr inbounds %struct.png_struct_def, ptr %10, i32 0, i32 21
  %12 = load i32, ptr %11, align 8
  %13 = icmp ult i32 %9, %12
  br i1 %13, label %14, label %15

14:                                               ; preds = %1
  br label %133

15:                                               ; preds = %1
  %16 = load ptr, ptr %2, align 8
  %17 = getelementptr inbounds %struct.png_struct_def, ptr %16, i32 0, i32 38
  %18 = load i8, ptr %17, align 4
  %19 = zext i8 %18 to i32
  %20 = icmp ne i32 %19, 0
  br i1 %20, label %21, label %131

21:                                               ; preds = %15
  %22 = load ptr, ptr %2, align 8
  %23 = getelementptr inbounds %struct.png_struct_def, ptr %22, i32 0, i32 25
  store i32 0, ptr %23, align 4
  %24 = load ptr, ptr %2, align 8
  %25 = getelementptr inbounds %struct.png_struct_def, ptr %24, i32 0, i32 27
  %26 = load ptr, ptr %25, align 8
  %27 = load ptr, ptr %2, align 8
  %28 = getelementptr inbounds %struct.png_struct_def, ptr %27, i32 0, i32 23
  %29 = load i64, ptr %28, align 8
  %30 = add i64 %29, 1
  call void @llvm.memset.p0.i64(ptr align 1 %26, i8 0, i64 %30, i1 false)
  br label %31

31:                                               ; preds = %121, %21
  %32 = load ptr, ptr %2, align 8
  %33 = getelementptr inbounds %struct.png_struct_def, ptr %32, i32 0, i32 39
  %34 = load i8, ptr %33, align 1
  %35 = add i8 %34, 1
  store i8 %35, ptr %33, align 1
  %36 = load ptr, ptr %2, align 8
  %37 = getelementptr inbounds %struct.png_struct_def, ptr %36, i32 0, i32 39
  %38 = load i8, ptr %37, align 1
  %39 = zext i8 %38 to i32
  %40 = icmp sge i32 %39, 7
  br i1 %40, label %41, label %42

41:                                               ; preds = %31
  br label %123

42:                                               ; preds = %31
  %43 = load ptr, ptr %2, align 8
  %44 = getelementptr inbounds %struct.png_struct_def, ptr %43, i32 0, i32 19
  %45 = load i32, ptr %44, align 8
  %46 = load ptr, ptr %2, align 8
  %47 = getelementptr inbounds %struct.png_struct_def, ptr %46, i32 0, i32 39
  %48 = load i8, ptr %47, align 1
  %49 = zext i8 %48 to i64
  %50 = getelementptr inbounds [7 x i8], ptr @png_read_finish_row.png_pass_inc, i64 0, i64 %49
  %51 = load i8, ptr %50, align 1
  %52 = zext i8 %51 to i32
  %53 = add i32 %45, %52
  %54 = sub i32 %53, 1
  %55 = load ptr, ptr %2, align 8
  %56 = getelementptr inbounds %struct.png_struct_def, ptr %55, i32 0, i32 39
  %57 = load i8, ptr %56, align 1
  %58 = zext i8 %57 to i64
  %59 = getelementptr inbounds [7 x i8], ptr @png_read_finish_row.png_pass_start, i64 0, i64 %58
  %60 = load i8, ptr %59, align 1
  %61 = zext i8 %60 to i32
  %62 = sub i32 %54, %61
  %63 = load ptr, ptr %2, align 8
  %64 = getelementptr inbounds %struct.png_struct_def, ptr %63, i32 0, i32 39
  %65 = load i8, ptr %64, align 1
  %66 = zext i8 %65 to i64
  %67 = getelementptr inbounds [7 x i8], ptr @png_read_finish_row.png_pass_inc, i64 0, i64 %66
  %68 = load i8, ptr %67, align 1
  %69 = zext i8 %68 to i32
  %70 = udiv i32 %62, %69
  %71 = load ptr, ptr %2, align 8
  %72 = getelementptr inbounds %struct.png_struct_def, ptr %71, i32 0, i32 24
  store i32 %70, ptr %72, align 8
  %73 = load ptr, ptr %2, align 8
  %74 = getelementptr inbounds %struct.png_struct_def, ptr %73, i32 0, i32 16
  %75 = load i32, ptr %74, align 4
  %76 = and i32 %75, 2
  %77 = icmp eq i32 %76, 0
  br i1 %77, label %78, label %109

78:                                               ; preds = %42
  %79 = load ptr, ptr %2, align 8
  %80 = getelementptr inbounds %struct.png_struct_def, ptr %79, i32 0, i32 20
  %81 = load i32, ptr %80, align 4
  %82 = load ptr, ptr %2, align 8
  %83 = getelementptr inbounds %struct.png_struct_def, ptr %82, i32 0, i32 39
  %84 = load i8, ptr %83, align 1
  %85 = zext i8 %84 to i64
  %86 = getelementptr inbounds [7 x i8], ptr @png_read_finish_row.png_pass_yinc, i64 0, i64 %85
  %87 = load i8, ptr %86, align 1
  %88 = zext i8 %87 to i32
  %89 = add i32 %81, %88
  %90 = sub i32 %89, 1
  %91 = load ptr, ptr %2, align 8
  %92 = getelementptr inbounds %struct.png_struct_def, ptr %91, i32 0, i32 39
  %93 = load i8, ptr %92, align 1
  %94 = zext i8 %93 to i64
  %95 = getelementptr inbounds [7 x i8], ptr @png_read_finish_row.png_pass_ystart, i64 0, i64 %94
  %96 = load i8, ptr %95, align 1
  %97 = zext i8 %96 to i32
  %98 = sub i32 %90, %97
  %99 = load ptr, ptr %2, align 8
  %100 = getelementptr inbounds %struct.png_struct_def, ptr %99, i32 0, i32 39
  %101 = load i8, ptr %100, align 1
  %102 = zext i8 %101 to i64
  %103 = getelementptr inbounds [7 x i8], ptr @png_read_finish_row.png_pass_yinc, i64 0, i64 %102
  %104 = load i8, ptr %103, align 1
  %105 = zext i8 %104 to i32
  %106 = udiv i32 %98, %105
  %107 = load ptr, ptr %2, align 8
  %108 = getelementptr inbounds %struct.png_struct_def, ptr %107, i32 0, i32 21
  store i32 %106, ptr %108, align 8
  br label %110

109:                                              ; preds = %42
  br label %123

110:                                              ; preds = %78
  br label %111

111:                                              ; preds = %110
  %112 = load ptr, ptr %2, align 8
  %113 = getelementptr inbounds %struct.png_struct_def, ptr %112, i32 0, i32 21
  %114 = load i32, ptr %113, align 8
  %115 = icmp eq i32 %114, 0
  br i1 %115, label %121, label %116

116:                                              ; preds = %111
  %117 = load ptr, ptr %2, align 8
  %118 = getelementptr inbounds %struct.png_struct_def, ptr %117, i32 0, i32 24
  %119 = load i32, ptr %118, align 8
  %120 = icmp eq i32 %119, 0
  br label %121

121:                                              ; preds = %116, %111
  %122 = phi i1 [ true, %111 ], [ %120, %116 ]
  br i1 %122, label %31, label %123, !llvm.loop !36

123:                                              ; preds = %121, %109, %41
  %124 = load ptr, ptr %2, align 8
  %125 = getelementptr inbounds %struct.png_struct_def, ptr %124, i32 0, i32 39
  %126 = load i8, ptr %125, align 1
  %127 = zext i8 %126 to i32
  %128 = icmp slt i32 %127, 7
  br i1 %128, label %129, label %130

129:                                              ; preds = %123
  br label %133

130:                                              ; preds = %123
  br label %131

131:                                              ; preds = %130, %15
  %132 = load ptr, ptr %2, align 8
  call void @png_read_finish_IDAT(ptr noundef %132)
  br label %133

133:                                              ; preds = %131, %129, %14
  ret void
}